Certificate:
    Data:
        Version: 3 (0x2)
        Serial Number: 16658134412916847349 (0xe72d94fd6e9e72f5)
    Signature Algorithm: sha256WithRSAEncryption
        Issuer: CN=docker-registry
        Validity
            Not Before: Sep 14 11:46:43 2016 GMT
            Not After : Oct 14 11:46:43 2016 GMT
        Subject: CN=docker-registry
        Subject Public Key Info:
            Public Key Algorithm: rsaEncryption
                Public-Key: (4096 bit)
                Modulus:
                    00:eb:0d:b0:2a:c9:e4:27:80:13:47:c0:cc:79:10:
                    46:e5:15:79:b0:f6:04:9b:34:99:ce:9f:58:ed:5e:
                    88:3d:42:87:1c:f4:23:44:ca:ee:41:3f:45:55:be:
                    18:f6:bf:b4:84:55:d7:78:88:12:14:c2:95:32:55:
                    c8:c3:7a:4d:b2:db:48:6a:15:d3:f0:28:58:c5:28:
                    83:ae:ce:e5:6a:8d:34:f7:01:c7:87:39:22:28:47:
                    9d:cf:74:2b:8b:cf:7b:44:ca:50:9f:aa:3c:c4:80:
                    b8:fd:78:31:d5:0b:d6:0a:97:6e:ab:d1:16:b5:a6:
                    19:e8:6d:2d:46:fa:57:51:fd:b2:60:47:6a:7b:ee:
                    38:1a:f2:20:e4:d1:c9:e8:eb:57:e5:9a:25:99:55:
                    e1:33:3f:ef:b5:2f:d5:71:5b:c7:f7:c2:0a:cf:ec:
                    d3:eb:64:83:0e:f6:f0:54:13:bd:18:6d:bc:40:4e:
                    45:e6:49:bb:9f:f8:a5:4d:ab:2f:17:9c:f1:2b:23:
                    5f:2b:f5:44:1f:09:df:e0:5c:a7:93:7e:64:fa:6f:
                    09:0d:be:ec:f2:64:52:84:d7:d1:2f:ff:f1:29:46:
                    9e:5f:b3:9b:0b:a4:0d:48:3f:39:07:fb:0c:fe:24:
                    5d:6b:e2:58:c2:6f:cb:89:81:24:9f:4d:24:26:dc:
                    ef:ce:9b:04:fa:f9:a6:47:35:29:6f:66:21:27:da:
                    9f:6f:8f:5d:78:85:46:a2:5e:8e:57:76:95:1e:8e:
                    fd:3e:b8:70:a6:36:fd:9d:a9:d8:af:b8:76:de:0a:
                    dd:4f:90:0d:5d:e3:63:f6:34:9c:20:07:5b:2b:0a:
                    5c:15:c7:ad:03:f8:06:dd:c0:eb:89:7a:68:f6:09:
                    37:25:29:8a:fd:08:ee:e8:13:b7:38:5c:0a:47:b6:
                    9f:3e:03:cc:6f:10:d1:a0:9c:28:dd:d0:a0:b3:03:
                    8e:23:57:88:4e:da:7f:b7:fd:8f:55:39:e2:a7:52:
                    3c:ef:4c:8d:09:2a:5c:2f:b5:7b:8b:99:83:4a:b7:
                    2d:65:18:94:eb:8b:2e:6c:4b:f5:ce:56:fd:55:18:
                    11:65:ea:6b:b3:ff:f9:7b:d2:86:72:31:32:ac:5e:
                    b2:6e:c7:41:af:78:49:4d:af:74:fc:a7:79:55:6a:
                    67:df:ef:96:c7:5b:8a:c5:af:65:85:cc:d6:80:e3:
                    4a:2b:33:8b:95:77:4d:10:fb:98:24:14:7a:e6:64:
                    14:5c:ba:d7:f2:7f:7a:64:fd:9d:d4:18:50:45:9b:
                    2d:e3:13:18:f7:8f:85:c9:b3:66:26:c6:b7:16:8d:
                    71:9e:39:77:e0:3e:ba:91:94:02:a9:32:52:ce:b2:
                    58:e2:4f
                Exponent: 65537 (0x10001)
        X509v3 extensions:
            X509v3 Subject Key Identifier: 
                05:92:D3:C4:F2:FD:CD:E9:59:BE:58:ED:FA:DE:33:1A:22:45:26:86
            X509v3 Authority Key Identifier: 
                keyid:05:92:D3:C4:F2:FD:CD:E9:59:BE:58:ED:FA:DE:33:1A:22:45:26:86

            X509v3 Basic Constraints: 
                CA:TRUE
    Signature Algorithm: sha256WithRSAEncryption
         6b:6b:2e:b7:64:0d:8a:11:32:c2:0e:e7:59:e8:bb:8e:b8:b6:
         1d:10:c1:50:02:a3:65:45:cf:6a:64:70:52:3a:46:98:a1:40:
         36:98:0d:a7:b5:7f:0b:13:92:63:e5:33:0c:3d:01:35:97:59:
         28:48:9f:95:85:9b:36:62:a4:ae:84:09:34:25:e9:f1:76:e5:
         6f:7b:b5:72:16:35:33:6a:7f:17:58:ad:cc:f8:c7:57:18:83:
         d2:d3:ff:21:2e:03:67:01:9f:15:6e:1a:dc:8f:e7:59:10:af:
         fc:37:86:58:86:b9:78:db:fb:1b:3b:b1:c3:b4:e5:c2:61:99:
         0e:d8:d8:4c:bb:b9:3f:1e:ba:0f:9b:66:8d:da:fb:da:84:d7:
         9d:24:2e:3e:95:f4:77:fa:de:0f:ed:df:c3:9a:fc:b6:b3:5e:
         b7:ba:67:9e:41:dd:cf:68:6a:5b:35:fd:6d:cc:c5:29:e0:31:
         87:3e:e3:24:c1:c4:c2:3e:f4:49:3c:10:4c:04:cc:ed:c0:a4:
         56:92:7a:66:4e:bd:51:8b:33:d1:ef:83:2f:0f:64:45:17:a2:
         17:ba:f5:3f:76:94:19:fa:2c:76:7b:a8:fa:98:6f:99:1d:bb:
         82:5d:f4:62:52:62:c6:ca:08:ed:2b:a4:5b:7d:98:5a:db:16:
         bd:89:ea:83:87:12:71:18:8b:07:17:99:40:16:17:42:90:73:
         b0:92:06:21:61:a2:5c:fa:93:13:77:13:3e:4f:7f:e5:db:88:
         9f:64:c9:4c:76:c4:fb:50:55:89:46:f4:bb:1a:9d:6e:03:11:
         51:4a:ac:97:32:24:47:de:fa:da:2c:23:7d:1a:b1:43:c8:a7:
         d3:f1:4e:22:d6:8b:90:85:39:c5:88:b9:09:60:03:86:1a:33:
         30:7f:c5:9d:66:e2:79:63:d2:7a:b8:c7:af:87:9d:62:a4:4f:
         29:0f:13:99:da:21:26:55:35:7b:db:0a:09:f4:6e:4d:bb:d0:
         fe:34:34:31:50:09:0e:79:d3:10:74:e3:45:5e:e4:f9:2f:e9:
         26:8b:8a:88:db:4b:6b:3f:9e:70:8e:90:7c:fe:3f:b1:94:b7:
         5b:e5:bf:50:9e:38:48:5f:ef:49:f8:3b:21:f9:f4:16:c8:e3:
         d0:65:1a:e8:b4:ff:de:fa:cb:e9:0d:f5:51:cc:65:23:f3:18:
         30:4f:ce:04:41:68:d7:50:30:74:0c:d2:a2:c1:a9:20:d6:51:
         e5:af:20:f3:cc:91:44:bb:fc:6f:df:1d:f4:db:92:0e:26:9f:
         1b:89:41:b3:45:7b:90:68:d4:ea:b2:6f:89:2a:97:24:44:94:
         ae:a1:8f:21:23:36:f6:68
-----BEGIN CERTIFICATE-----
MIIFBzCCAu+gAwIBAgIJAOctlP1unnL1MA0GCSqGSIb3DQEBCwUAMBoxGDAWBgNV
BAMMD2RvY2tlci1yZWdpc3RyeTAeFw0xNjA5MTQxMTQ2NDNaFw0xNjEwMTQxMTQ2
NDNaMBoxGDAWBgNVBAMMD2RvY2tlci1yZWdpc3RyeTCCAiIwDQYJKoZIhvcNAQEB
BQADggIPADCCAgoCggIBAOsNsCrJ5CeAE0fAzHkQRuUVebD2BJs0mc6fWO1eiD1C
hxz0I0TK7kE/RVW+GPa/tIRV13iIEhTClTJVyMN6TbLbSGoV0/AoWMUog67O5WqN
NPcBx4c5IihHnc90K4vPe0TKUJ+qPMSAuP14MdUL1gqXbqvRFrWmGehtLUb6V1H9
smBHanvuOBryIOTRyejrV+WaJZlV4TM/77Uv1XFbx/fCCs/s0+tkgw728FQTvRht
vEBOReZJu5/4pU2rLxec8SsjXyv1RB8J3+Bcp5N+ZPpvCQ2+7PJkUoTX0S//8SlG
nl+zmwukDUg/OQf7DP4kXWviWMJvy4mBJJ9NJCbc786bBPr5pkc1KW9mISfan2+P
XXiFRqJejld2lR6O/T64cKY2/Z2p2K+4dt4K3U+QDV3jY/Y0nCAHWysKXBXHrQP4
Bt3A64l6aPYJNyUpiv0I7ugTtzhcCke2nz4DzG8Q0aCcKN3QoLMDjiNXiE7af7f9
j1U54qdSPO9MjQkqXC+1e4uZg0q3LWUYlOuLLmxL9c5W/VUYEWXqa7P/+XvShnIx
Mqxesm7HQa94SU2vdPyneVVqZ9/vlsdbisWvZYXM1oDjSiszi5V3TRD7mCQUeuZk
FFy61/J/emT9ndQYUEWbLeMTGPePhcmzZibGtxaNcZ45d+A+upGUAqkyUs6yWOJP
AgMBAAGjUDBOMB0GA1UdDgQWBBQFktPE8v3N6Vm+WO363jMaIkUmhjAfBgNVHSME
GDAWgBQFktPE8v3N6Vm+WO363jMaIkUmhjAMBgNVHRMEBTADAQH/MA0GCSqGSIb3
DQEBCwUAA4ICAQBray63ZA2KETLCDudZ6LuOuLYdEMFQAqNlRc9qZHBSOkaYoUA2
mA2ntX8LE5Jj5TMMPQE1l1koSJ+VhZs2YqSuhAk0JenxduVve7VyFjUzan8XWK3M
+MdXGIPS0/8hLgNnAZ8Vbhrcj+dZEK/8N4ZYhrl42/sbO7HDtOXCYZkO2NhMu7k/
HroPm2aN2vvahNedJC4+lfR3+t4P7d/Dmvy2s163umeeQd3PaGpbNf1tzMUp4DGH
PuMkwcTCPvRJPBBMBMztwKRWknpmTr1RizPR74MvD2RFF6IXuvU/dpQZ+ix2e6j6
mG+ZHbuCXfRiUmLGygjtK6RbfZha2xa9ieqDhxJxGIsHF5lAFhdCkHOwkgYhYaJc
+pMTdxM+T3/l24ifZMlMdsT7UFWJRvS7Gp1uAxFRSqyXMiRH3vraLCN9GrFDyKfT
8U4i1ouQhTnFiLkJYAOGGjMwf8WdZuJ5Y9J6uMevh51ipE8pDxOZ2iEmVTV72woJ
9G5Nu9D+NDQxUAkOedMQdONFXuT5L+kmi4qI20trP55wjpB8/j+xlLdb5b9QnjhI
X+9J+Dsh+fQWyOPQZRrotP/e+svpDfVRzGUj8xgwT84EQWjXUDB0DNKiwakg1lHl
ryDzzJFEu/xv3x3025IOJp8biUGzRXuQaNTqsm+JKpckRJSuoY8hIzb2aA==
-----END CERTIFICATE-----
